; Function Attrs: nounwind uwtable
define void @Saig_ManBmcSupergateTest(ptr noundef readonly captures(none) %0) local_unnamed_addr #0 {
  tail call void (i32, ptr, ...) @Abc_Print(i32 poison, ptr noundef nonnull @.str.5)
  %2 = getelementptr i8, ptr %0, i64 112
  %.val18 = load i32, ptr %2, align 8, !tbaa !22
  %3 = icmp sgt i32 %.val18, 0
  br i1 %3, label %.lr.ph, label %.critedge

.lr.ph:                                           ; preds = %1
  %4 = getelementptr inbounds nuw i8, ptr %0, i64 24
  br label %5

5:                                                ; preds = %.lr.ph, %Vec_PtrFree.exit
  %indvars.iv = phi i64 [ 0, %.lr.ph ], [ %indvars.iv.next, %Vec_PtrFree.exit ]
  %6 = load ptr, ptr %4, align 8, !tbaa !21
  %7 = getelementptr i8, ptr %6, i64 8
  %.val11 = load ptr, ptr %7, align 8, !tbaa !23
  %8 = getelementptr inbounds nuw ptr, ptr %.val11, i64 %indvars.iv
  %9 = tail call noalias dereferenceable_or_null(16) ptr @malloc(i64 noundef 16) #27
  %10 = getelementptr inbounds nuw i8, ptr %9, i64 4
  store i32 0, ptr %10, align 4, !tbaa !32
  store i32 10, ptr %9, align 8, !tbaa !42
  %11 = tail call noalias dereferenceable_or_null(80) ptr @malloc(i64 noundef 80) #27
  %12 = getelementptr inbounds nuw i8, ptr %9, i64 8
  store ptr %11, ptr %12, align 8, !tbaa !23
  %13 = load ptr, ptr %8, align 8, !tbaa !25
  %14 = getelementptr i8, ptr %13, i64 8
  %.val20.i = load ptr, ptr %14, align 8, !tbaa !26
  %15 = ptrtoint ptr %.val20.i to i64
  %16 = and i64 %15, 1
  %.not.i = icmp eq i64 %16, 0
  br i1 %.not.i, label %Vec_PtrPush.exit.i, label %17

Vec_PtrPush.exit.i:                               ; preds = %5
  store ptr %.val20.i, ptr %11, align 8, !tbaa !25
  br label %.lr.ph.i

17:                                               ; preds = %5
  %18 = and i64 %15, -2
  %19 = inttoptr i64 %18 to ptr
  %20 = getelementptr i8, ptr %19, i64 24
  %.val.i = load i64, ptr %20, align 8
  %21 = trunc i64 %.val.i to i32
  %22 = and i32 %21, 7
  %23 = add nsw i32 %22, -7
  %narrow.i.i = icmp ult i32 %23, -2
  br i1 %narrow.i.i, label %Vec_PtrPush.exit28.i, label %Saig_ManBmcSupergate.exit

Vec_PtrPush.exit28.i:                             ; preds = %17
  store ptr %19, ptr %11, align 8, !tbaa !25
  br label %.lr.ph.i

Saig_ManBmcSupergate.exit:                        ; preds = %17
  %24 = getelementptr i8, ptr %19, i64 8
  %.val19.i = load ptr, ptr %24, align 8, !tbaa !26
  tail call void @Saig_ManBmcSupergate_rec(ptr noundef %.val19.i, ptr noundef nonnull %9)
  %25 = getelementptr i8, ptr %19, i64 16
  %.val21.i = load ptr, ptr %25, align 8, !tbaa !39
  tail call void @Saig_ManBmcSupergate_rec(ptr noundef %.val21.i, ptr noundef nonnull %9)
  %.val12.pr = load i32, ptr %10, align 4, !tbaa !32
  %26 = icmp sgt i32 %.val12.pr, 0
  br i1 %26, label %Saig_ManBmcSupergate.exit..lr.ph.i_crit_edge, label %Saig_ManBmcCountRefed.exit

Saig_ManBmcSupergate.exit..lr.ph.i_crit_edge:     ; preds = %Saig_ManBmcSupergate.exit
  %.val.i13.pre = load ptr, ptr %12, align 8, !tbaa !23
  br label %.lr.ph.i

.lr.ph.i:                                         ; preds = %Saig_ManBmcSupergate.exit..lr.ph.i_crit_edge, %Vec_PtrPush.exit28.i, %Vec_PtrPush.exit.i
  %.val.i13 = phi ptr [ %.val.i13.pre, %Saig_ManBmcSupergate.exit..lr.ph.i_crit_edge ], [ %11, %Vec_PtrPush.exit.i ], [ %11, %Vec_PtrPush.exit28.i ]
  %.val1216 = phi i32 [ %.val12.pr, %Saig_ManBmcSupergate.exit..lr.ph.i_crit_edge ], [ 1, %Vec_PtrPush.exit.i ], [ 1, %Vec_PtrPush.exit28.i ]
  %wide.trip.count.i = zext nneg i32 %.val1216 to i64
  br label %27

27:                                               ; preds = %27, %.lr.ph.i
  %indvars.iv.i = phi i64 [ 0, %.lr.ph.i ], [ %indvars.iv.next.i, %27 ]
  %.011.i = phi i32 [ 0, %.lr.ph.i ], [ %34, %27 ]
  %28 = getelementptr inbounds nuw ptr, ptr %.val.i13, i64 %indvars.iv.i
  %29 = load ptr, ptr %28, align 8, !tbaa !25
  %30 = getelementptr i8, ptr %29, i64 24
  %.val9.i = load i64, ptr %30, align 8
  %31 = and i64 %.val9.i, 4294967168
  %32 = icmp ne i64 %31, 0
  %33 = zext i1 %32 to i32
  %34 = add nuw nsw i32 %.011.i, %33
  %indvars.iv.next.i = add nuw nsw i64 %indvars.iv.i, 1
  %exitcond.not.i = icmp eq i64 %indvars.iv.next.i, %wide.trip.count.i
  br i1 %exitcond.not.i, label %Saig_ManBmcCountRefed.exit, label %27, !llvm.loop !67

Saig_ManBmcCountRefed.exit:                       ; preds = %27, %Saig_ManBmcSupergate.exit
  %.val1217 = phi i32 [ %.val12.pr, %Saig_ManBmcSupergate.exit ], [ %.val1216, %27 ]
  %.0.lcssa.i = phi i32 [ 0, %Saig_ManBmcSupergate.exit ], [ %34, %27 ]
  %35 = trunc nuw nsw i64 %indvars.iv to i32
  tail call void (i32, ptr, ...) @Abc_Print(i32 poison, ptr noundef nonnull @.str.6, i32 noundef %35, i32 noundef %.val1217, i32 noundef %.0.lcssa.i)
  %36 = load ptr, ptr %12, align 8, !tbaa !23
  %.not.i14 = icmp eq ptr %36, null
  br i1 %.not.i14, label %Vec_PtrFree.exit, label %37

37:                                               ; preds = %Saig_ManBmcCountRefed.exit
  tail call void @free(ptr noundef nonnull %36) #24
  br label %Vec_PtrFree.exit

Vec_PtrFree.exit:                                 ; preds = %Saig_ManBmcCountRefed.exit, %37
  tail call void @free(ptr noundef nonnull %9) #24
  %indvars.iv.next = add nuw nsw i64 %indvars.iv, 1
  %.val = load i32, ptr %2, align 8, !tbaa !22
  %38 = sext i32 %.val to i64
  %39 = icmp slt i64 %indvars.iv.next, %38
  br i1 %39, label %5, label %.critedge, !llvm.loop !68

.critedge:                                        ; preds = %Vec_PtrFree.exit, %1
  tail call void (i32, ptr, ...) @Abc_Print(i32 poison, ptr noundef nonnull @.str.2)
  ret void
}